; Function Attrs: mustprogress uwtable
define hidden void @_ZN6google8protobuf24EnumValueDescriptorProto8CopyFromERKS1_(ptr noundef nonnull align 8 dereferenceable(48) %0, ptr noundef nonnull readonly align 8 dereferenceable(48) %1) local_unnamed_addr #3 align 2 {
  %3 = icmp eq ptr %1, %0
  br i1 %3, label %5, label %4

4:                                                ; preds = %2
  tail call void @_ZN6google8protobuf24EnumValueDescriptorProto5ClearEv(ptr noundef nonnull align 8 dereferenceable(48) %0)
  tail call void @_ZN6google8protobuf24EnumValueDescriptorProto9MergeFromERKS1_(ptr noundef nonnull align 8 dereferenceable(48) %0, ptr noundef nonnull align 8 dereferenceable(48) %1)
  br label %5

5:                                                ; preds = %2, %4
  ret void
}